target datalayout = "e-m:e-p270:32:32-p271:32:32-p272:64:64-i64:64-i128:128-f80:128-n8:16:32:64-S128"
target triple = "x86_64-unknown-linux-gnu"

%"struct.std::atomic.1" = type { %"struct.std::__atomic_base.0" }
%"struct.std::__atomic_base.0" = type { ptr }
%"class.absl::cord_internal::CordzInfo" = type <{ %"class.absl::cord_internal::CordzHandle", ptr, %"struct.std::atomic.1", %"struct.std::atomic.1", %"class.absl::Mutex", ptr, [64 x ptr], [64 x ptr], i64, i64, i32, i32, %"class.absl::cord_internal::CordzUpdateTracker", %"class.absl::Time", [4 x i8] }>
%"class.absl::cord_internal::CordzHandle" = type { ptr, i8, ptr, ptr }
%"class.absl::Mutex" = type { %"struct.std::atomic.2" }
%"struct.std::atomic.2" = type { %"struct.std::__atomic_base.3" }
%"struct.std::__atomic_base.3" = type { i64 }
%"class.absl::cord_internal::CordzUpdateTracker" = type { [25 x %"class.absl::cord_internal::CordzUpdateTracker::Counter"] }
%"class.absl::cord_internal::CordzUpdateTracker::Counter" = type { %"struct.std::atomic.2" }
%"class.absl::Time" = type { %"class.absl::Duration" }
%"class.absl::Duration" = type { %"class.absl::Duration::HiRep", i32 }
%"class.absl::Duration::HiRep" = type { i32, i32 }

; Function Attrs: noreturn nounwind uwtable
define linkonce_odr hidden void @__clang_call_terminate(ptr noundef %0) #7 comdat {
  %2 = call ptr @__cxa_begin_catch(ptr %0) #10
  call void @_ZSt9terminatev() #13
  unreachable
}

; Function Attrs: mustprogress nounwind uwtable
define linkonce_odr dso_local noundef i32 @_ZStanSt12memory_orderSt23__memory_order_modifier(i32 noundef %__m, i32 noundef %__mod) #0 comdat {
entry:
  %__m.addr = alloca i32, align 4
  %__mod.addr = alloca i32, align 4
  store i32 %__m, ptr %__m.addr, align 4
  store i32 %__mod, ptr %__mod.addr, align 4
  %0 = load i32, ptr %__m.addr, align 4
  %1 = load i32, ptr %__mod.addr, align 4
  %and = and i32 %0, %1
  ret i32 %and
}

; Function Attrs: mustprogress nounwind uwtable
define linkonce_odr dso_local void @_ZN4absl13cord_internal18CordzUpdateTracker8LossyAddENS1_16MethodIdentifierEl(ptr noundef nonnull align 8 dereferenceable(200) %this, i32 noundef %method, i64 noundef %n) #0 comdat align 2 personality ptr @__gxx_personality_v0 {
entry:
  %this.addr.i2 = alloca ptr, align 8
  %__m.addr.i3 = alloca i32, align 4
  %__b.i4 = alloca i32, align 4
  %atomic-temp.i = alloca i64, align 8
  %this.addr.i = alloca ptr, align 8
  %__i.addr.i = alloca i64, align 8
  %__m.addr.i = alloca i32, align 4
  %__b.i = alloca i32, align 4
  %.atomictmp.i = alloca i64, align 8
  %this.addr = alloca ptr, align 8
  %method.addr = alloca i32, align 4
  %n.addr = alloca i64, align 8
  %value = alloca ptr, align 8
  store ptr %this, ptr %this.addr, align 8
  store i32 %method, ptr %method.addr, align 4
  store i64 %n, ptr %n.addr, align 8
  %this1 = load ptr, ptr %this.addr, align 8
  %values_ = getelementptr inbounds %"class.absl::cord_internal::CordzUpdateTracker", ptr %this1, i32 0, i32 0
  %0 = load i32, ptr %method.addr, align 4
  %idxprom = zext i32 %0 to i64
  %arrayidx = getelementptr inbounds [25 x %"class.absl::cord_internal::CordzUpdateTracker::Counter"], ptr %values_, i64 0, i64 %idxprom
  store ptr %arrayidx, ptr %value, align 8
  %1 = load ptr, ptr %value, align 8
  %2 = load ptr, ptr %value, align 8
  store ptr %2, ptr %this.addr.i2, align 8
  store i32 0, ptr %__m.addr.i3, align 4
  %this1.i5 = load ptr, ptr %this.addr.i2, align 8
  %3 = load i32, ptr %__m.addr.i3, align 4
  %call.i6 = call noundef i32 @_ZStanSt12memory_orderSt23__memory_order_modifier(i32 noundef %3, i32 noundef 65535)
  store i32 %call.i6, ptr %__b.i4, align 4
  %4 = load i32, ptr %__m.addr.i3, align 4
  switch i32 %4, label %monotonic.i8 [
    i32 1, label %acquire.i
    i32 2, label %acquire.i
    i32 5, label %seqcst.i7
  ]

monotonic.i8:                                     ; preds = %entry
  %5 = load atomic i64, ptr %this1.i5 monotonic, align 8
  store i64 %5, ptr %atomic-temp.i, align 8
  br label %_ZNKSt13__atomic_baseIlE4loadESt12memory_order.exit

acquire.i:                                        ; preds = %entry, %entry
  %6 = load atomic i64, ptr %this1.i5 acquire, align 8
  store i64 %6, ptr %atomic-temp.i, align 8
  br label %_ZNKSt13__atomic_baseIlE4loadESt12memory_order.exit

seqcst.i7:                                        ; preds = %entry
  %7 = load atomic i64, ptr %this1.i5 seq_cst, align 8
  store i64 %7, ptr %atomic-temp.i, align 8
  br label %_ZNKSt13__atomic_baseIlE4loadESt12memory_order.exit

_ZNKSt13__atomic_baseIlE4loadESt12memory_order.exit: ; preds = %seqcst.i7, %acquire.i, %monotonic.i8
  %8 = load i64, ptr %atomic-temp.i, align 8
  %9 = load i64, ptr %n.addr, align 8
  %add = add nsw i64 %8, %9
  store ptr %1, ptr %this.addr.i, align 8
  store i64 %add, ptr %__i.addr.i, align 8
  store i32 0, ptr %__m.addr.i, align 4
  %this1.i = load ptr, ptr %this.addr.i, align 8
  %10 = load i32, ptr %__m.addr.i, align 4
  %call.i = invoke noundef i32 @_ZStanSt12memory_orderSt23__memory_order_modifier(i32 noundef %10, i32 noundef 65535)
          to label %invoke.cont.i unwind label %terminate.lpad.i

invoke.cont.i:                                    ; preds = %_ZNKSt13__atomic_baseIlE4loadESt12memory_order.exit
  store i32 %call.i, ptr %__b.i, align 4
  %11 = load i32, ptr %__m.addr.i, align 4
  %12 = load i64, ptr %__i.addr.i, align 8
  store i64 %12, ptr %.atomictmp.i, align 8
  switch i32 %11, label %monotonic.i [
    i32 3, label %release.i
    i32 5, label %seqcst.i
  ]

monotonic.i:                                      ; preds = %invoke.cont.i
  %13 = load i64, ptr %.atomictmp.i, align 8
  store atomic i64 %13, ptr %this1.i monotonic, align 8
  br label %_ZNSt13__atomic_baseIlE5storeElSt12memory_order.exit

release.i:                                        ; preds = %invoke.cont.i
  %14 = load i64, ptr %.atomictmp.i, align 8
  store atomic i64 %14, ptr %this1.i release, align 8
  br label %_ZNSt13__atomic_baseIlE5storeElSt12memory_order.exit

seqcst.i:                                         ; preds = %invoke.cont.i
  %15 = load i64, ptr %.atomictmp.i, align 8
  store atomic i64 %15, ptr %this1.i seq_cst, align 8
  br label %_ZNSt13__atomic_baseIlE5storeElSt12memory_order.exit

terminate.lpad.i:                                 ; preds = %_ZNKSt13__atomic_baseIlE4loadESt12memory_order.exit
  %16 = landingpad { ptr, i32 }
          catch ptr null
  %17 = extractvalue { ptr, i32 } %16, 0
  call void @__clang_call_terminate(ptr %17) #13
  unreachable

_ZNSt13__atomic_baseIlE5storeElSt12memory_order.exit: ; preds = %seqcst.i, %release.i, %monotonic.i
  ret void
}

; Function Attrs: mustprogress uwtable
define dso_local void @_ZN4absl13cord_internal9CordzInfo4LockENS0_18CordzUpdateTracker16MethodIdentifierE(ptr noundef nonnull align 8 dereferenceable(1332) %this, i32 noundef %method) #1 align 2 {
entry:
  %this.addr = alloca ptr, align 8
  %method.addr = alloca i32, align 4
  store ptr %this, ptr %this.addr, align 8
  store i32 %method, ptr %method.addr, align 4
  %this1 = load ptr, ptr %this.addr, align 8
  %mutex_ = getelementptr inbounds %"class.absl::cord_internal::CordzInfo", ptr %this1, i32 0, i32 4
  call void @_ZN4absl5Mutex4LockEv(ptr noundef nonnull align 8 dereferenceable(8) %mutex_)
  %update_tracker_ = getelementptr inbounds %"class.absl::cord_internal::CordzInfo", ptr %this1, i32 0, i32 12
  %0 = load i32, ptr %method.addr, align 4
  call void @_ZN4absl13cord_internal18CordzUpdateTracker8LossyAddENS1_16MethodIdentifierEl(ptr noundef nonnull align 8 dereferenceable(200) %update_tracker_, i32 noundef %0, i64 noundef 1)
  ret void
}