; Function Attrs: mustprogress uwtable
define dso_local void @_ZN4absl13cord_internal9CordzInfo4LockENS0_18CordzUpdateTracker16MethodIdentifierE(ptr noundef nonnull align 8 dereferenceable(1332) %this, i32 noundef %method) local_unnamed_addr #2 align 2 personality ptr @__gxx_personality_v0 {
entry:
  %mutex_ = getelementptr inbounds i8, ptr %this, i64 56
  tail call void @_ZN4absl5Mutex4LockEv(ptr noundef nonnull align 8 dereferenceable(8) %mutex_)
  %update_tracker_ = getelementptr inbounds i8, ptr %this, i64 1120
  %idxprom.i = zext i32 %method to i64
  %arrayidx.i = getelementptr inbounds [25 x %"class.absl::cord_internal::CordzUpdateTracker::Counter"], ptr %update_tracker_, i64 0, i64 %idxprom.i
  %0 = load atomic i64, ptr %arrayidx.i monotonic, align 8
  %add.i = add nsw i64 %0, 1
  store atomic i64 %add.i, ptr %arrayidx.i monotonic, align 8
  ret void
}